target datalayout = "e-m:e-p270:32:32-p271:32:32-p272:64:64-i64:64-i128:128-f80:128-n8:16:32:64-S128"
target triple = "x86_64-pc-linux-gnu"

%"class.nix::ref" = type { %"class.std::shared_ptr" }
%"class.std::shared_ptr" = type { %"class.std::__shared_ptr" }
%"class.std::__shared_ptr" = type { ptr, %"class.std::__shared_count" }
%"class.std::__shared_count" = type { ptr }
%"class.nix::ref.4" = type { %"class.std::shared_ptr.5" }
%"class.std::shared_ptr.5" = type { %"class.std::__shared_ptr.6" }
%"class.std::__shared_ptr.6" = type { ptr, %"class.std::__shared_count" }

; Function Attrs: mustprogress uwtable
define internal void @_ZZN3nixL16registerCommand2I14CmdConfigCheckEENS_15RegisterCommandEOSt6vectorINSt7__cxx1112basic_stringIcSt11char_traitsIcESaIcEEESaIS9_EEENKUlvE_clEv(ptr dead_on_unwind noalias writable sret(%"class.nix::ref.4") align 8 %0, ptr noundef nonnull align 1 dereferenceable(1) %1) #5 align 2 {
  %3 = alloca ptr, align 8
  %4 = alloca ptr, align 8
  store ptr %0, ptr %3, align 8
  store ptr %1, ptr %4, align 8
  call void @_ZN3nix8make_refI14CmdConfigCheckJEEENS_3refIT_EEDpOT0_(ptr dead_on_unwind writable sret(%"class.nix::ref.4") align 8 %0)
  ret void
}

; Function Attrs: mustprogress nounwind uwtable
define linkonce_odr noundef ptr @_ZNKSt9_Any_data9_M_accessEv(ptr noundef nonnull align 8 dereferenceable(16) %0) #2 comdat align 2 {
  %2 = alloca ptr, align 8
  store ptr %0, ptr %2, align 8
  %3 = load ptr, ptr %2, align 8
  %4 = getelementptr inbounds [16 x i8], ptr %3, i64 0, i64 0
  ret ptr %4
}

; Function Attrs: mustprogress uwtable
define internal void @_ZSt13__invoke_implIN3nix3refI14CmdConfigCheckEERZNS0_L16registerCommand2IS2_EENS0_15RegisterCommandEOSt6vectorINSt7__cxx1112basic_stringIcSt11char_traitsIcESaIcEEESaISC_EEEUlvE_JEET_St14__invoke_otherOT0_DpOT1_(ptr dead_on_unwind noalias writable sret(%"class.nix::ref.4") align 8 %0, ptr noundef nonnull align 1 dereferenceable(1) %1) #5 {
  %3 = alloca ptr, align 8
  %4 = alloca ptr, align 8
  store ptr %0, ptr %3, align 8
  store ptr %1, ptr %4, align 8
  %5 = load ptr, ptr %4, align 8
  call void @_ZZN3nixL16registerCommand2I14CmdConfigCheckEENS_15RegisterCommandEOSt6vectorINSt7__cxx1112basic_stringIcSt11char_traitsIcESaIcEEESaIS9_EEENKUlvE_clEv(ptr dead_on_unwind writable sret(%"class.nix::ref.4") align 8 %0, ptr noundef nonnull align 1 dereferenceable(1) %5)
  ret void
}

; Function Attrs: mustprogress nounwind uwtable
define internal noundef nonnull align 1 dereferenceable(1) ptr @_ZNKSt9_Any_data9_M_accessIZN3nixL16registerCommand2I14CmdConfigCheckEENS1_15RegisterCommandEOSt6vectorINSt7__cxx1112basic_stringIcSt11char_traitsIcESaIcEEESaISB_EEEUlvE_EERKT_v(ptr noundef nonnull align 8 dereferenceable(16) %0) #2 align 2 {
  %2 = alloca ptr, align 8
  store ptr %0, ptr %2, align 8
  %3 = load ptr, ptr %2, align 8
  %4 = call noundef ptr @_ZNKSt9_Any_data9_M_accessEv(ptr noundef nonnull align 8 dereferenceable(16) %3) #1
  ret ptr %4
}

; Function Attrs: mustprogress uwtable
define internal void @_ZSt10__invoke_rIN3nix3refINS0_7CommandEEERZNS0_L16registerCommand2I14CmdConfigCheckEENS0_15RegisterCommandEOSt6vectorINSt7__cxx1112basic_stringIcSt11char_traitsIcESaIcEEESaISD_EEEUlvE_JEENSt9enable_ifIX16is_invocable_r_vIT_T0_DpT1_EESK_E4typeEOSL_DpOSM_(ptr dead_on_unwind noalias writable sret(%"class.nix::ref") align 8 %0, ptr noundef nonnull align 1 dereferenceable(1) %1) #5 personality ptr @__gxx_personality_v0 {
  %3 = alloca ptr, align 8
  %4 = alloca ptr, align 8
  %5 = alloca %"class.nix::ref.4", align 8
  %6 = alloca ptr, align 8
  %7 = alloca i32, align 4
  store ptr %0, ptr %3, align 8
  store ptr %1, ptr %4, align 8
  %8 = load ptr, ptr %4, align 8
  call void @_ZSt13__invoke_implIN3nix3refI14CmdConfigCheckEERZNS0_L16registerCommand2IS2_EENS0_15RegisterCommandEOSt6vectorINSt7__cxx1112basic_stringIcSt11char_traitsIcESaIcEEESaISC_EEEUlvE_JEET_St14__invoke_otherOT0_DpOT1_(ptr dead_on_unwind writable sret(%"class.nix::ref.4") align 8 %5, ptr noundef nonnull align 1 dereferenceable(1) %8)
  invoke void @_ZNK3nix3refI14CmdConfigCheckEcvNS0_IT_EEINS_7CommandEEEv(ptr dead_on_unwind writable sret(%"class.nix::ref") align 8 %0, ptr noundef nonnull align 8 dereferenceable(16) %5)
          to label %9 unwind label %10

9:                                                ; preds = %2
  call void @_ZN3nix3refI14CmdConfigCheckED2Ev(ptr noundef nonnull align 8 dereferenceable(16) %5) #1
  ret void

10:                                               ; preds = %2
  %11 = landingpad { ptr, i32 }
          cleanup
  %12 = extractvalue { ptr, i32 } %11, 0
  store ptr %12, ptr %6, align 8
  %13 = extractvalue { ptr, i32 } %11, 1
  store i32 %13, ptr %7, align 4
  call void @_ZN3nix3refI14CmdConfigCheckED2Ev(ptr noundef nonnull align 8 dereferenceable(16) %5) #1
  br label %14

14:                                               ; preds = %10
  %15 = load ptr, ptr %6, align 8
  %16 = load i32, ptr %7, align 4
  %17 = insertvalue { ptr, i32 } poison, ptr %15, 0
  %18 = insertvalue { ptr, i32 } %17, i32 %16, 1
  resume { ptr, i32 } %18
}

; Function Attrs: mustprogress nounwind uwtable
define internal noundef ptr @_ZNSt14_Function_base13_Base_managerIZN3nixL16registerCommand2I14CmdConfigCheckEENS1_15RegisterCommandEOSt6vectorINSt7__cxx1112basic_stringIcSt11char_traitsIcESaIcEEESaISB_EEEUlvE_E14_M_get_pointerERKSt9_Any_data(ptr noundef nonnull align 8 dereferenceable(16) %0) #2 align 2 {
  %2 = alloca ptr, align 8
  %3 = alloca ptr, align 8
  store ptr %0, ptr %2, align 8
  %4 = load ptr, ptr %2, align 8
  %5 = call noundef nonnull align 1 dereferenceable(1) ptr @_ZNKSt9_Any_data9_M_accessIZN3nixL16registerCommand2I14CmdConfigCheckEENS1_15RegisterCommandEOSt6vectorINSt7__cxx1112basic_stringIcSt11char_traitsIcESaIcEEESaISB_EEEUlvE_EERKT_v(ptr noundef nonnull align 8 dereferenceable(16) %4) #1
  store ptr %5, ptr %3, align 8
  %6 = load ptr, ptr %3, align 8
  ret ptr %6
}

; Function Attrs: mustprogress uwtable
define internal void @_ZNSt17_Function_handlerIFN3nix3refINS0_7CommandEEEvEZNS0_L16registerCommand2I14CmdConfigCheckEENS0_15RegisterCommandEOSt6vectorINSt7__cxx1112basic_stringIcSt11char_traitsIcESaIcEEESaISE_EEEUlvE_E9_M_invokeERKSt9_Any_data(ptr dead_on_unwind noalias writable sret(%"class.nix::ref") align 8 %0, ptr noundef nonnull align 8 dereferenceable(16) %1) #5 align 2 {
  %3 = alloca ptr, align 8
  %4 = alloca ptr, align 8
  store ptr %0, ptr %3, align 8
  store ptr %1, ptr %4, align 8
  %5 = load ptr, ptr %4, align 8
  %6 = call noundef ptr @_ZNSt14_Function_base13_Base_managerIZN3nixL16registerCommand2I14CmdConfigCheckEENS1_15RegisterCommandEOSt6vectorINSt7__cxx1112basic_stringIcSt11char_traitsIcESaIcEEESaISB_EEEUlvE_E14_M_get_pointerERKSt9_Any_data(ptr noundef nonnull align 8 dereferenceable(16) %5) #1
  call void @_ZSt10__invoke_rIN3nix3refINS0_7CommandEEERZNS0_L16registerCommand2I14CmdConfigCheckEENS0_15RegisterCommandEOSt6vectorINSt7__cxx1112basic_stringIcSt11char_traitsIcESaIcEEESaISD_EEEUlvE_JEENSt9enable_ifIX16is_invocable_r_vIT_T0_DpT1_EESK_E4typeEOSL_DpOSM_(ptr dead_on_unwind writable sret(%"class.nix::ref") align 8 %0, ptr noundef nonnull align 1 dereferenceable(1) %6)
  ret void
}